target datalayout = "e-m:e-p270:32:32-p271:32:32-p272:64:64-i64:64-i128:128-f80:128-n8:16:32:64-S128"
target triple = "x86_64-pc-linux-gnu"

@libctx = internal global ptr null, align 8
@.str.14 = private unnamed_addr constant [29 x i8] c"../openssl/test/sslapitest.c\00", align 1
@cert = internal global ptr null, align 8
@privkey = internal global ptr null, align 8
@.str.157 = private unnamed_addr constant [67 x i8] c"create_ssl_objects(sctx, cctx, &serverssl, &clientssl, NULL, NULL)\00", align 1
@.str.191 = private unnamed_addr constant [10 x i8] c"clientssl\00", align 1
@.str.756 = private unnamed_addr constant [5 x i8] c"rbio\00", align 1
@.str.757 = private unnamed_addr constant [5 x i8] c"wbio\00", align 1
@.str.910 = private unnamed_addr constant [105 x i8] c"create_ssl_ctx_pair(libctx, TLS_server_method(), TLS_client_method(), 0, 0, &sctx, &cctx, cert, privkey)\00", align 1
@.str.1102 = private unnamed_addr constant [53 x i8] c"SSL_set_min_proto_version(clientssl, TLS1_2_VERSION)\00", align 1
@.str.1103 = private unnamed_addr constant [53 x i8] c"SSL_set_max_proto_version(clientssl, TLS1_2_VERSION)\00", align 1
@.str.1104 = private unnamed_addr constant [17 x i8] c"BIO_up_ref(rbio)\00", align 1
@.str.1105 = private unnamed_addr constant [17 x i8] c"BIO_up_ref(wbio)\00", align 1
@.str.1106 = private unnamed_addr constant [11 x i8] c"client2ssl\00", align 1
@.str.1107 = private unnamed_addr constant [38 x i8] c"SSL_get_min_proto_version(client2ssl)\00", align 1
@.str.1108 = private unnamed_addr constant [15 x i8] c"TLS1_2_VERSION\00", align 1
@.str.1109 = private unnamed_addr constant [38 x i8] c"SSL_get_max_proto_version(client2ssl)\00", align 1
@.str.1110 = private unnamed_addr constant [61 x i8] c"create_ssl_connection(serverssl, client2ssl, SSL_ERROR_NONE)\00", align 1

; Function Attrs: nounwind uwtable
define internal i32 @test_ssl_dup() #0 {
  %1 = alloca ptr, align 8
  %2 = alloca ptr, align 8
  %3 = alloca ptr, align 8
  %4 = alloca ptr, align 8
  %5 = alloca ptr, align 8
  %6 = alloca i32, align 4
  %7 = alloca ptr, align 8
  %8 = alloca ptr, align 8
  call void @llvm.lifetime.start.p0(i64 8, ptr %1) #9
  store ptr null, ptr %1, align 8, !tbaa !19
  call void @llvm.lifetime.start.p0(i64 8, ptr %2) #9
  store ptr null, ptr %2, align 8, !tbaa !19
  call void @llvm.lifetime.start.p0(i64 8, ptr %3) #9
  store ptr null, ptr %3, align 8, !tbaa !21
  call void @llvm.lifetime.start.p0(i64 8, ptr %4) #9
  store ptr null, ptr %4, align 8, !tbaa !21
  call void @llvm.lifetime.start.p0(i64 8, ptr %5) #9
  store ptr null, ptr %5, align 8, !tbaa !21
  call void @llvm.lifetime.start.p0(i64 4, ptr %6) #9
  store i32 0, ptr %6, align 4, !tbaa !13
  call void @llvm.lifetime.start.p0(i64 8, ptr %7) #9
  store ptr null, ptr %7, align 8, !tbaa !29
  call void @llvm.lifetime.start.p0(i64 8, ptr %8) #9
  store ptr null, ptr %8, align 8, !tbaa !29
  %9 = load ptr, ptr @libctx, align 8, !tbaa !4
  %10 = call ptr @TLS_server_method()
  %11 = call ptr @TLS_client_method()
  %12 = load ptr, ptr @cert, align 8, !tbaa !11
  %13 = load ptr, ptr @privkey, align 8, !tbaa !11
  %14 = call i32 @create_ssl_ctx_pair(ptr noundef %9, ptr noundef %10, ptr noundef %11, i32 noundef 0, i32 noundef 0, ptr noundef %2, ptr noundef %1, ptr noundef %12, ptr noundef %13)
  %15 = icmp ne i32 %14, 0
  %16 = zext i1 %15 to i32
  %17 = call i32 @test_true(ptr noundef @.str.14, i32 noundef 10322, ptr noundef @.str.910, i32 noundef %16)
  %18 = icmp ne i32 %17, 0
  br i1 %18, label %20, label %19

19:                                               ; preds = %0
  br label %124

20:                                               ; preds = %0
  %21 = load ptr, ptr %2, align 8, !tbaa !19
  %22 = load ptr, ptr %1, align 8, !tbaa !19
  %23 = call i32 @create_ssl_objects(ptr noundef %21, ptr noundef %22, ptr noundef %4, ptr noundef %3, ptr noundef null, ptr noundef null)
  %24 = icmp ne i32 %23, 0
  %25 = zext i1 %24 to i32
  %26 = call i32 @test_true(ptr noundef @.str.14, i32 noundef 10326, ptr noundef @.str.157, i32 noundef %25)
  %27 = icmp ne i32 %26, 0
  br i1 %27, label %29, label %28

28:                                               ; preds = %20
  br label %124

29:                                               ; preds = %20
  %30 = load ptr, ptr %3, align 8, !tbaa !21
  %31 = call i64 @SSL_ctrl(ptr noundef %30, i32 noundef 123, i64 noundef 771, ptr noundef null)
  %32 = icmp ne i64 %31, 0
  %33 = zext i1 %32 to i32
  %34 = call i32 @test_true(ptr noundef @.str.14, i32 noundef 10329, ptr noundef @.str.1102, i32 noundef %33)
  %35 = icmp ne i32 %34, 0
  br i1 %35, label %36, label %43

36:                                               ; preds = %29
  %37 = load ptr, ptr %3, align 8, !tbaa !21
  %38 = call i64 @SSL_ctrl(ptr noundef %37, i32 noundef 124, i64 noundef 771, ptr noundef null)
  %39 = icmp ne i64 %38, 0
  %40 = zext i1 %39 to i32
  %41 = call i32 @test_true(ptr noundef @.str.14, i32 noundef 10330, ptr noundef @.str.1103, i32 noundef %40)
  %42 = icmp ne i32 %41, 0
  br i1 %42, label %44, label %43

43:                                               ; preds = %36, %29
  br label %124

44:                                               ; preds = %36
  %45 = load ptr, ptr %3, align 8, !tbaa !21
  %46 = call ptr @SSL_dup(ptr noundef %45)
  store ptr %46, ptr %5, align 8, !tbaa !21
  %47 = load ptr, ptr %3, align 8, !tbaa !21
  %48 = call ptr @SSL_get_rbio(ptr noundef %47)
  store ptr %48, ptr %7, align 8, !tbaa !29
  %49 = load ptr, ptr %7, align 8, !tbaa !29
  %50 = call i32 @test_ptr(ptr noundef @.str.14, i32 noundef 10335, ptr noundef @.str.756, ptr noundef %49)
  %51 = icmp ne i32 %50, 0
  br i1 %51, label %52, label %59

52:                                               ; preds = %44
  %53 = load ptr, ptr %7, align 8, !tbaa !29
  %54 = call i32 @BIO_up_ref(ptr noundef %53)
  %55 = icmp ne i32 %54, 0
  %56 = zext i1 %55 to i32
  %57 = call i32 @test_true(ptr noundef @.str.14, i32 noundef 10336, ptr noundef @.str.1104, i32 noundef %56)
  %58 = icmp ne i32 %57, 0
  br i1 %58, label %60, label %59

59:                                               ; preds = %52, %44
  br label %124

60:                                               ; preds = %52
  %61 = load ptr, ptr %5, align 8, !tbaa !21
  %62 = load ptr, ptr %7, align 8, !tbaa !29
  call void @SSL_set0_rbio(ptr noundef %61, ptr noundef %62)
  store ptr null, ptr %7, align 8, !tbaa !29
  %63 = load ptr, ptr %3, align 8, !tbaa !21
  %64 = call ptr @SSL_get_wbio(ptr noundef %63)
  store ptr %64, ptr %8, align 8, !tbaa !29
  %65 = load ptr, ptr %8, align 8, !tbaa !29
  %66 = call i32 @test_ptr(ptr noundef @.str.14, i32 noundef 10342, ptr noundef @.str.757, ptr noundef %65)
  %67 = icmp ne i32 %66, 0
  br i1 %67, label %68, label %75

68:                                               ; preds = %60
  %69 = load ptr, ptr %8, align 8, !tbaa !29
  %70 = call i32 @BIO_up_ref(ptr noundef %69)
  %71 = icmp ne i32 %70, 0
  %72 = zext i1 %71 to i32
  %73 = call i32 @test_true(ptr noundef @.str.14, i32 noundef 10342, ptr noundef @.str.1105, i32 noundef %72)
  %74 = icmp ne i32 %73, 0
  br i1 %74, label %76, label %75

75:                                               ; preds = %68, %60
  br label %124

76:                                               ; preds = %68
  %77 = load ptr, ptr %5, align 8, !tbaa !21
  %78 = load ptr, ptr %8, align 8, !tbaa !29
  call void @SSL_set0_wbio(ptr noundef %77, ptr noundef %78)
  store ptr null, ptr %7, align 8, !tbaa !29
  %79 = load ptr, ptr %5, align 8, !tbaa !21
  %80 = call i32 @test_ptr(ptr noundef @.str.14, i32 noundef 10347, ptr noundef @.str.1106, ptr noundef %79)
  %81 = icmp ne i32 %80, 0
  br i1 %81, label %82, label %87

82:                                               ; preds = %76
  %83 = load ptr, ptr %3, align 8, !tbaa !21
  %84 = load ptr, ptr %5, align 8, !tbaa !21
  %85 = call i32 @test_ptr_ne(ptr noundef @.str.14, i32 noundef 10349, ptr noundef @.str.191, ptr noundef @.str.1106, ptr noundef %83, ptr noundef %84)
  %86 = icmp ne i32 %85, 0
  br i1 %86, label %88, label %87

87:                                               ; preds = %82, %76
  br label %124

88:                                               ; preds = %82
  %89 = load ptr, ptr %5, align 8, !tbaa !21
  %90 = call i64 @SSL_ctrl(ptr noundef %89, i32 noundef 130, i64 noundef 0, ptr noundef null)
  %91 = trunc i64 %90 to i32
  %92 = call i32 @test_int_eq(ptr noundef @.str.14, i32 noundef 10352, ptr noundef @.str.1107, ptr noundef @.str.1108, i32 noundef %91, i32 noundef 771)
  %93 = icmp ne i32 %92, 0
  br i1 %93, label %94, label %100

94:                                               ; preds = %88
  %95 = load ptr, ptr %5, align 8, !tbaa !21
  %96 = call i64 @SSL_ctrl(ptr noundef %95, i32 noundef 131, i64 noundef 0, ptr noundef null)
  %97 = trunc i64 %96 to i32
  %98 = call i32 @test_int_eq(ptr noundef @.str.14, i32 noundef 10353, ptr noundef @.str.1109, ptr noundef @.str.1108, i32 noundef %97, i32 noundef 771)
  %99 = icmp ne i32 %98, 0
  br i1 %99, label %101, label %100

100:                                              ; preds = %94, %88
  br label %124

101:                                              ; preds = %94
  %102 = load ptr, ptr %4, align 8, !tbaa !21
  %103 = load ptr, ptr %5, align 8, !tbaa !21
  %104 = call i32 @create_ssl_connection(ptr noundef %102, ptr noundef %103, i32 noundef 0)
  %105 = icmp ne i32 %104, 0
  %106 = zext i1 %105 to i32
  %107 = call i32 @test_true(ptr noundef @.str.14, i32 noundef 10356, ptr noundef @.str.1110, i32 noundef %106)
  %108 = icmp ne i32 %107, 0
  br i1 %108, label %110, label %109

109:                                              ; preds = %101
  br label %124

110:                                              ; preds = %101
  %111 = load ptr, ptr %3, align 8, !tbaa !21
  call void @SSL_free(ptr noundef %111)
  %112 = load ptr, ptr %5, align 8, !tbaa !21
  %113 = call ptr @SSL_dup(ptr noundef %112)
  store ptr %113, ptr %3, align 8, !tbaa !21
  %114 = load ptr, ptr %3, align 8, !tbaa !21
  %115 = call i32 @test_ptr(ptr noundef @.str.14, i32 noundef 10361, ptr noundef @.str.191, ptr noundef %114)
  %116 = icmp ne i32 %115, 0
  br i1 %116, label %117, label %122

117:                                              ; preds = %110
  %118 = load ptr, ptr %3, align 8, !tbaa !21
  %119 = load ptr, ptr %5, align 8, !tbaa !21
  %120 = call i32 @test_ptr_eq(ptr noundef @.str.14, i32 noundef 10363, ptr noundef @.str.191, ptr noundef @.str.1106, ptr noundef %118, ptr noundef %119)
  %121 = icmp ne i32 %120, 0
  br i1 %121, label %123, label %122

122:                                              ; preds = %117, %110
  br label %124

123:                                              ; preds = %117
  store i32 1, ptr %6, align 4, !tbaa !13
  br label %124

124:                                              ; preds = %123, %122, %109, %100, %87, %75, %59, %43, %28, %19
  %125 = load ptr, ptr %4, align 8, !tbaa !21
  call void @SSL_free(ptr noundef %125)
  %126 = load ptr, ptr %3, align 8, !tbaa !21
  call void @SSL_free(ptr noundef %126)
  %127 = load ptr, ptr %5, align 8, !tbaa !21
  call void @SSL_free(ptr noundef %127)
  %128 = load ptr, ptr %2, align 8, !tbaa !19
  call void @SSL_CTX_free(ptr noundef %128)
  %129 = load ptr, ptr %1, align 8, !tbaa !19
  call void @SSL_CTX_free(ptr noundef %129)
  %130 = load i32, ptr %6, align 4, !tbaa !13
  call void @llvm.lifetime.end.p0(i64 8, ptr %8) #9
  call void @llvm.lifetime.end.p0(i64 8, ptr %7) #9
  call void @llvm.lifetime.end.p0(i64 4, ptr %6) #9
  call void @llvm.lifetime.end.p0(i64 8, ptr %5) #9
  call void @llvm.lifetime.end.p0(i64 8, ptr %4) #9
  call void @llvm.lifetime.end.p0(i64 8, ptr %3) #9
  call void @llvm.lifetime.end.p0(i64 8, ptr %2) #9
  call void @llvm.lifetime.end.p0(i64 8, ptr %1) #9
  ret i32 %130
}