; Function Attrs: nounwind uwtable
define internal range(i32 0, 2) i32 @test_ssl_dup() #1 {
  %1 = alloca ptr, align 8
  %2 = alloca ptr, align 8
  %3 = alloca ptr, align 8
  %4 = alloca ptr, align 8
  call void @llvm.lifetime.start.p0(i64 8, ptr nonnull %1) #24
  store ptr null, ptr %1, align 8, !tbaa !19
  call void @llvm.lifetime.start.p0(i64 8, ptr nonnull %2) #24
  store ptr null, ptr %2, align 8, !tbaa !19
  call void @llvm.lifetime.start.p0(i64 8, ptr nonnull %3) #24
  store ptr null, ptr %3, align 8, !tbaa !21
  call void @llvm.lifetime.start.p0(i64 8, ptr nonnull %4) #24
  store ptr null, ptr %4, align 8, !tbaa !21
  %5 = load ptr, ptr @libctx, align 8, !tbaa !4
  %6 = tail call ptr @TLS_server_method() #24
  %7 = tail call ptr @TLS_client_method() #24
  %8 = load ptr, ptr @cert, align 8, !tbaa !11
  %9 = load ptr, ptr @privkey, align 8, !tbaa !11
  %10 = call i32 @create_ssl_ctx_pair(ptr noundef %5, ptr noundef %6, ptr noundef %7, i32 noundef 0, i32 noundef 0, ptr noundef nonnull %2, ptr noundef nonnull %1, ptr noundef %8, ptr noundef %9) #24
  %11 = icmp ne i32 %10, 0
  %12 = zext i1 %11 to i32
  %13 = call i32 @test_true(ptr noundef nonnull @.str.14, i32 noundef 10322, ptr noundef nonnull @.str.910, i32 noundef %12) #24
  %.not = icmp eq i32 %13, 0
  br i1 %.not, label %79, label %14

14:                                               ; preds = %0
  %15 = load ptr, ptr %2, align 8, !tbaa !19
  %16 = load ptr, ptr %1, align 8, !tbaa !19
  %17 = call i32 @create_ssl_objects(ptr noundef %15, ptr noundef %16, ptr noundef nonnull %4, ptr noundef nonnull %3, ptr noundef null, ptr noundef null) #24
  %18 = icmp ne i32 %17, 0
  %19 = zext i1 %18 to i32
  %20 = call i32 @test_true(ptr noundef nonnull @.str.14, i32 noundef 10326, ptr noundef nonnull @.str.157, i32 noundef %19) #24
  %.not17 = icmp eq i32 %20, 0
  br i1 %.not17, label %79, label %21

21:                                               ; preds = %14
  %22 = load ptr, ptr %3, align 8, !tbaa !21
  %23 = call i64 @SSL_ctrl(ptr noundef %22, i32 noundef 123, i64 noundef 771, ptr noundef null) #24
  %24 = icmp ne i64 %23, 0
  %25 = zext i1 %24 to i32
  %26 = call i32 @test_true(ptr noundef nonnull @.str.14, i32 noundef 10329, ptr noundef nonnull @.str.1102, i32 noundef %25) #24
  %.not18 = icmp eq i32 %26, 0
  br i1 %.not18, label %79, label %27

27:                                               ; preds = %21
  %28 = load ptr, ptr %3, align 8, !tbaa !21
  %29 = call i64 @SSL_ctrl(ptr noundef %28, i32 noundef 124, i64 noundef 771, ptr noundef null) #24
  %30 = icmp ne i64 %29, 0
  %31 = zext i1 %30 to i32
  %32 = call i32 @test_true(ptr noundef nonnull @.str.14, i32 noundef 10330, ptr noundef nonnull @.str.1103, i32 noundef %31) #24
  %.not19 = icmp eq i32 %32, 0
  br i1 %.not19, label %79, label %33

33:                                               ; preds = %27
  %34 = load ptr, ptr %3, align 8, !tbaa !21
  %35 = call ptr @SSL_dup(ptr noundef %34) #24
  %36 = load ptr, ptr %3, align 8, !tbaa !21
  %37 = call ptr @SSL_get_rbio(ptr noundef %36) #24
  %38 = call i32 @test_ptr(ptr noundef nonnull @.str.14, i32 noundef 10335, ptr noundef nonnull @.str.756, ptr noundef %37) #24
  %.not20 = icmp eq i32 %38, 0
  br i1 %.not20, label %79, label %39

39:                                               ; preds = %33
  %40 = call i32 @BIO_up_ref(ptr noundef %37) #24
  %41 = icmp ne i32 %40, 0
  %42 = zext i1 %41 to i32
  %43 = call i32 @test_true(ptr noundef nonnull @.str.14, i32 noundef 10336, ptr noundef nonnull @.str.1104, i32 noundef %42) #24
  %.not21 = icmp eq i32 %43, 0
  br i1 %.not21, label %79, label %44

44:                                               ; preds = %39
  call void @SSL_set0_rbio(ptr noundef %35, ptr noundef %37) #24
  %45 = load ptr, ptr %3, align 8, !tbaa !21
  %46 = call ptr @SSL_get_wbio(ptr noundef %45) #24
  %47 = call i32 @test_ptr(ptr noundef nonnull @.str.14, i32 noundef 10342, ptr noundef nonnull @.str.757, ptr noundef %46) #24
  %.not22 = icmp eq i32 %47, 0
  br i1 %.not22, label %79, label %48

48:                                               ; preds = %44
  %49 = call i32 @BIO_up_ref(ptr noundef %46) #24
  %50 = icmp ne i32 %49, 0
  %51 = zext i1 %50 to i32
  %52 = call i32 @test_true(ptr noundef nonnull @.str.14, i32 noundef 10342, ptr noundef nonnull @.str.1105, i32 noundef %51) #24
  %.not23 = icmp eq i32 %52, 0
  br i1 %.not23, label %79, label %53

53:                                               ; preds = %48
  call void @SSL_set0_wbio(ptr noundef %35, ptr noundef %46) #24
  %54 = call i32 @test_ptr(ptr noundef nonnull @.str.14, i32 noundef 10347, ptr noundef nonnull @.str.1106, ptr noundef %35) #24
  %.not24 = icmp eq i32 %54, 0
  br i1 %.not24, label %79, label %55

55:                                               ; preds = %53
  %56 = load ptr, ptr %3, align 8, !tbaa !21
  %57 = call i32 @test_ptr_ne(ptr noundef nonnull @.str.14, i32 noundef 10349, ptr noundef nonnull @.str.191, ptr noundef nonnull @.str.1106, ptr noundef %56, ptr noundef %35) #24
  %.not25 = icmp eq i32 %57, 0
  br i1 %.not25, label %79, label %58

58:                                               ; preds = %55
  %59 = call i64 @SSL_ctrl(ptr noundef %35, i32 noundef 130, i64 noundef 0, ptr noundef null) #24
  %60 = trunc i64 %59 to i32
  %61 = call i32 @test_int_eq(ptr noundef nonnull @.str.14, i32 noundef 10352, ptr noundef nonnull @.str.1107, ptr noundef nonnull @.str.1108, i32 noundef %60, i32 noundef 771) #24
  %.not26 = icmp eq i32 %61, 0
  br i1 %.not26, label %79, label %62

62:                                               ; preds = %58
  %63 = call i64 @SSL_ctrl(ptr noundef %35, i32 noundef 131, i64 noundef 0, ptr noundef null) #24
  %64 = trunc i64 %63 to i32
  %65 = call i32 @test_int_eq(ptr noundef nonnull @.str.14, i32 noundef 10353, ptr noundef nonnull @.str.1109, ptr noundef nonnull @.str.1108, i32 noundef %64, i32 noundef 771) #24
  %.not27 = icmp eq i32 %65, 0
  br i1 %.not27, label %79, label %66

66:                                               ; preds = %62
  %67 = load ptr, ptr %4, align 8, !tbaa !21
  %68 = call i32 @create_ssl_connection(ptr noundef %67, ptr noundef %35, i32 noundef 0) #24
  %69 = icmp ne i32 %68, 0
  %70 = zext i1 %69 to i32
  %71 = call i32 @test_true(ptr noundef nonnull @.str.14, i32 noundef 10356, ptr noundef nonnull @.str.1110, i32 noundef %70) #24
  %.not28 = icmp eq i32 %71, 0
  br i1 %.not28, label %79, label %72

72:                                               ; preds = %66
  %73 = load ptr, ptr %3, align 8, !tbaa !21
  call void @SSL_free(ptr noundef %73) #24
  %74 = call ptr @SSL_dup(ptr noundef %35) #24
  store ptr %74, ptr %3, align 8, !tbaa !21
  %75 = call i32 @test_ptr(ptr noundef nonnull @.str.14, i32 noundef 10361, ptr noundef nonnull @.str.191, ptr noundef %74) #24
  %.not29 = icmp eq i32 %75, 0
  br i1 %.not29, label %79, label %76

76:                                               ; preds = %72
  %77 = load ptr, ptr %3, align 8, !tbaa !21
  %78 = call i32 @test_ptr_eq(ptr noundef nonnull @.str.14, i32 noundef 10363, ptr noundef nonnull @.str.191, ptr noundef nonnull @.str.1106, ptr noundef %77, ptr noundef %35) #24
  %.not30 = icmp ne i32 %78, 0
  %spec.select = zext i1 %.not30 to i32
  br label %79

79:                                               ; preds = %76, %72, %66, %58, %62, %53, %55, %44, %48, %33, %39, %21, %27, %14, %0
  %.016 = phi ptr [ %35, %72 ], [ %35, %66 ], [ %35, %62 ], [ %35, %58 ], [ %35, %55 ], [ %35, %53 ], [ %35, %48 ], [ %35, %44 ], [ %35, %39 ], [ %35, %33 ], [ null, %27 ], [ null, %21 ], [ null, %14 ], [ null, %0 ], [ %35, %76 ]
  %.0 = phi i32 [ 0, %72 ], [ 0, %66 ], [ 0, %62 ], [ 0, %58 ], [ 0, %55 ], [ 0, %53 ], [ 0, %48 ], [ 0, %44 ], [ 0, %39 ], [ 0, %33 ], [ 0, %27 ], [ 0, %21 ], [ 0, %14 ], [ 0, %0 ], [ %spec.select, %76 ]
  %80 = load ptr, ptr %4, align 8, !tbaa !21
  call void @SSL_free(ptr noundef %80) #24
  %81 = load ptr, ptr %3, align 8, !tbaa !21
  call void @SSL_free(ptr noundef %81) #24
  call void @SSL_free(ptr noundef %.016) #24
  %82 = load ptr, ptr %2, align 8, !tbaa !19
  call void @SSL_CTX_free(ptr noundef %82) #24
  %83 = load ptr, ptr %1, align 8, !tbaa !19
  call void @SSL_CTX_free(ptr noundef %83) #24
  call void @llvm.lifetime.end.p0(i64 8, ptr nonnull %4) #24
  call void @llvm.lifetime.end.p0(i64 8, ptr nonnull %3) #24
  call void @llvm.lifetime.end.p0(i64 8, ptr nonnull %2) #24
  call void @llvm.lifetime.end.p0(i64 8, ptr nonnull %1) #24
  ret i32 %.0
}